; Function Attrs: mustprogress uwtable
define internal void @"_ZNSt17_Function_handlerIFvillEZN18OpenImageIO_v2_6_012parallel_forEllOSt8functionIFvilEENS1_6paroptEE3$_0E9_M_invokeERKSt9_Any_dataOiOlSD_"(ptr nocapture noundef nonnull readonly align 8 dereferenceable(16) %__functor, ptr nocapture noundef nonnull readonly align 4 dereferenceable(4) %__args, ptr nocapture noundef nonnull readonly align 8 dereferenceable(8) %__args1, ptr nocapture noundef nonnull readonly align 8 dereferenceable(8) %__args3) #4 align 2 {
entry:
  %__args.addr.i.i.i.i = alloca i32, align 4
  %__args.addr2.i.i.i.i = alloca i64, align 8
  %__args.val = load i32, ptr %__args, align 4
  %__args1.val = load i64, ptr %__args1, align 8
  %__args3.val = load i64, ptr %__args3, align 8
  %cmp3.i.i.i = icmp slt i64 %__args1.val, %__args3.val
  br i1 %cmp3.i.i.i, label %for.body.i.i.i, label %"_ZSt10__invoke_rIvRZN18OpenImageIO_v2_6_012parallel_forEllOSt8functionIFvilEENS0_6paroptEE3$_0JillEENSt9enable_ifIX16is_invocable_r_vIT_T0_DpT1_EES9_E4typeEOSA_DpOSB_.exit"

for.body.i.i.i:                                   ; preds = %entry, %_ZNKSt8functionIFvilEEclEil.exit.i.i.i
  %i.addr.04.i.i.i = phi i64 [ %inc.i.i.i, %_ZNKSt8functionIFvilEEclEil.exit.i.i.i ], [ %__args1.val, %entry ]
  %0 = load ptr, ptr %__functor, align 8
  call void @llvm.lifetime.start.p0(i64 4, ptr nonnull %__args.addr.i.i.i.i)
  call void @llvm.lifetime.start.p0(i64 8, ptr nonnull %__args.addr2.i.i.i.i)
  store i32 %__args.val, ptr %__args.addr.i.i.i.i, align 4
  store i64 %i.addr.04.i.i.i, ptr %__args.addr2.i.i.i.i, align 8
  %_M_manager.i.i.i.i.i = getelementptr inbounds i8, ptr %0, i64 16
  %1 = load ptr, ptr %_M_manager.i.i.i.i.i, align 8
  %tobool.not.i.i.i.i.i = icmp eq ptr %1, null
  br i1 %tobool.not.i.i.i.i.i, label %if.then.i.i.i.i, label %_ZNKSt8functionIFvilEEclEil.exit.i.i.i

if.then.i.i.i.i:                                  ; preds = %for.body.i.i.i
  call void @_ZSt25__throw_bad_function_callv() #28
  unreachable

_ZNKSt8functionIFvilEEclEil.exit.i.i.i:           ; preds = %for.body.i.i.i
  %_M_invoker.i.i.i.i = getelementptr inbounds i8, ptr %0, i64 24
  %2 = load ptr, ptr %_M_invoker.i.i.i.i, align 8
  call void %2(ptr noundef nonnull align 8 dereferenceable(16) %0, ptr noundef nonnull align 4 dereferenceable(4) %__args.addr.i.i.i.i, ptr noundef nonnull align 8 dereferenceable(8) %__args.addr2.i.i.i.i)
  call void @llvm.lifetime.end.p0(i64 4, ptr nonnull %__args.addr.i.i.i.i)
  call void @llvm.lifetime.end.p0(i64 8, ptr nonnull %__args.addr2.i.i.i.i)
  %inc.i.i.i = add i64 %i.addr.04.i.i.i, 1
  %exitcond.not.i.i.i = icmp eq i64 %inc.i.i.i, %__args3.val
  br i1 %exitcond.not.i.i.i, label %"_ZSt10__invoke_rIvRZN18OpenImageIO_v2_6_012parallel_forEllOSt8functionIFvilEENS0_6paroptEE3$_0JillEENSt9enable_ifIX16is_invocable_r_vIT_T0_DpT1_EES9_E4typeEOSA_DpOSB_.exit", label %for.body.i.i.i, !llvm.loop !204

"_ZSt10__invoke_rIvRZN18OpenImageIO_v2_6_012parallel_forEllOSt8functionIFvilEENS0_6paroptEE3$_0JillEENSt9enable_ifIX16is_invocable_r_vIT_T0_DpT1_EES9_E4typeEOSA_DpOSB_.exit": ; preds = %_ZNKSt8functionIFvilEEclEil.exit.i.i.i, %entry
  ret void
}